target datalayout = "e-m:e-p270:32:32-p271:32:32-p272:64:64-i64:64-i128:128-f80:128-n8:16:32:64-S128"
target triple = "x86_64-pc-linux-gnu"

; Function Attrs: inlinehint mustprogress nounwind uwtable
define internal noundef signext i8 @_ZL9U_FAILURE10UErrorCode(i32 noundef %0) #2 {
  %2 = alloca i32, align 4
  store i32 %0, ptr %2, align 4, !tbaa !30
  %3 = load i32, ptr %2, align 4, !tbaa !30
  %4 = icmp sgt i32 %3, 0
  %5 = zext i1 %4 to i8
  ret i8 %5
}

; Function Attrs: mustprogress uwtable
define void @_ZN6icu_779SpoofImpl21getAugmentedScriptSetEiRNS_9ScriptSetER10UErrorCode(i32 noundef %0, ptr noundef nonnull align 4 dereferenceable(28) %1, ptr noundef nonnull align 4 dereferenceable(4) %2) #1 align 2 {
  %4 = alloca i32, align 4
  %5 = alloca ptr, align 8
  %6 = alloca ptr, align 8
  store i32 %0, ptr %4, align 4, !tbaa !48
  store ptr %1, ptr %5, align 8, !tbaa !56
  store ptr %2, ptr %6, align 8, !tbaa !10
  %7 = load ptr, ptr %5, align 8, !tbaa !56
  %8 = call noundef nonnull align 4 dereferenceable(28) ptr @_ZN6icu_779ScriptSet8resetAllEv(ptr noundef nonnull align 4 dereferenceable(28) %7)
  %9 = load ptr, ptr %5, align 8, !tbaa !56
  %10 = load i32, ptr %4, align 4, !tbaa !48
  %11 = load ptr, ptr %6, align 8, !tbaa !10
  call void @_ZN6icu_779ScriptSet19setScriptExtensionsEiR10UErrorCode(ptr noundef nonnull align 4 dereferenceable(28) %9, i32 noundef %10, ptr noundef nonnull align 4 dereferenceable(4) %11)
  %12 = load ptr, ptr %6, align 8, !tbaa !10
  %13 = load i32, ptr %12, align 4, !tbaa !30
  %14 = call noundef signext i8 @_ZL9U_FAILURE10UErrorCode(i32 noundef %13)
  %15 = icmp ne i8 %14, 0
  br i1 %15, label %16, label %17

16:                                               ; preds = %3
  br label %81

17:                                               ; preds = %3
  %18 = load ptr, ptr %5, align 8, !tbaa !56
  %19 = load ptr, ptr %6, align 8, !tbaa !10
  %20 = call noundef signext i8 @_ZNK6icu_779ScriptSet4testE11UScriptCodeR10UErrorCode(ptr noundef nonnull align 4 dereferenceable(28) %18, i32 noundef 17, ptr noundef nonnull align 4 dereferenceable(4) %19)
  %21 = icmp ne i8 %20, 0
  br i1 %21, label %22, label %32

22:                                               ; preds = %17
  %23 = load ptr, ptr %5, align 8, !tbaa !56
  %24 = load ptr, ptr %6, align 8, !tbaa !10
  %25 = call noundef nonnull align 4 dereferenceable(28) ptr @_ZN6icu_779ScriptSet3setE11UScriptCodeR10UErrorCode(ptr noundef nonnull align 4 dereferenceable(28) %23, i32 noundef 172, ptr noundef nonnull align 4 dereferenceable(4) %24)
  %26 = load ptr, ptr %5, align 8, !tbaa !56
  %27 = load ptr, ptr %6, align 8, !tbaa !10
  %28 = call noundef nonnull align 4 dereferenceable(28) ptr @_ZN6icu_779ScriptSet3setE11UScriptCodeR10UErrorCode(ptr noundef nonnull align 4 dereferenceable(28) %26, i32 noundef 105, ptr noundef nonnull align 4 dereferenceable(4) %27)
  %29 = load ptr, ptr %5, align 8, !tbaa !56
  %30 = load ptr, ptr %6, align 8, !tbaa !10
  %31 = call noundef nonnull align 4 dereferenceable(28) ptr @_ZN6icu_779ScriptSet3setE11UScriptCodeR10UErrorCode(ptr noundef nonnull align 4 dereferenceable(28) %29, i32 noundef 119, ptr noundef nonnull align 4 dereferenceable(4) %30)
  br label %32

32:                                               ; preds = %22, %17
  %33 = load ptr, ptr %5, align 8, !tbaa !56
  %34 = load ptr, ptr %6, align 8, !tbaa !10
  %35 = call noundef signext i8 @_ZNK6icu_779ScriptSet4testE11UScriptCodeR10UErrorCode(ptr noundef nonnull align 4 dereferenceable(28) %33, i32 noundef 20, ptr noundef nonnull align 4 dereferenceable(4) %34)
  %36 = icmp ne i8 %35, 0
  br i1 %36, label %37, label %41

37:                                               ; preds = %32
  %38 = load ptr, ptr %5, align 8, !tbaa !56
  %39 = load ptr, ptr %6, align 8, !tbaa !10
  %40 = call noundef nonnull align 4 dereferenceable(28) ptr @_ZN6icu_779ScriptSet3setE11UScriptCodeR10UErrorCode(ptr noundef nonnull align 4 dereferenceable(28) %38, i32 noundef 105, ptr noundef nonnull align 4 dereferenceable(4) %39)
  br label %41

41:                                               ; preds = %37, %32
  %42 = load ptr, ptr %5, align 8, !tbaa !56
  %43 = load ptr, ptr %6, align 8, !tbaa !10
  %44 = call noundef signext i8 @_ZNK6icu_779ScriptSet4testE11UScriptCodeR10UErrorCode(ptr noundef nonnull align 4 dereferenceable(28) %42, i32 noundef 22, ptr noundef nonnull align 4 dereferenceable(4) %43)
  %45 = icmp ne i8 %44, 0
  br i1 %45, label %46, label %50

46:                                               ; preds = %41
  %47 = load ptr, ptr %5, align 8, !tbaa !56
  %48 = load ptr, ptr %6, align 8, !tbaa !10
  %49 = call noundef nonnull align 4 dereferenceable(28) ptr @_ZN6icu_779ScriptSet3setE11UScriptCodeR10UErrorCode(ptr noundef nonnull align 4 dereferenceable(28) %47, i32 noundef 105, ptr noundef nonnull align 4 dereferenceable(4) %48)
  br label %50

50:                                               ; preds = %46, %41
  %51 = load ptr, ptr %5, align 8, !tbaa !56
  %52 = load ptr, ptr %6, align 8, !tbaa !10
  %53 = call noundef signext i8 @_ZNK6icu_779ScriptSet4testE11UScriptCodeR10UErrorCode(ptr noundef nonnull align 4 dereferenceable(28) %51, i32 noundef 18, ptr noundef nonnull align 4 dereferenceable(4) %52)
  %54 = icmp ne i8 %53, 0
  br i1 %54, label %55, label %59

55:                                               ; preds = %50
  %56 = load ptr, ptr %5, align 8, !tbaa !56
  %57 = load ptr, ptr %6, align 8, !tbaa !10
  %58 = call noundef nonnull align 4 dereferenceable(28) ptr @_ZN6icu_779ScriptSet3setE11UScriptCodeR10UErrorCode(ptr noundef nonnull align 4 dereferenceable(28) %56, i32 noundef 119, ptr noundef nonnull align 4 dereferenceable(4) %57)
  br label %59

59:                                               ; preds = %55, %50
  %60 = load ptr, ptr %5, align 8, !tbaa !56
  %61 = load ptr, ptr %6, align 8, !tbaa !10
  %62 = call noundef signext i8 @_ZNK6icu_779ScriptSet4testE11UScriptCodeR10UErrorCode(ptr noundef nonnull align 4 dereferenceable(28) %60, i32 noundef 5, ptr noundef nonnull align 4 dereferenceable(4) %61)
  %63 = icmp ne i8 %62, 0
  br i1 %63, label %64, label %68

64:                                               ; preds = %59
  %65 = load ptr, ptr %5, align 8, !tbaa !56
  %66 = load ptr, ptr %6, align 8, !tbaa !10
  %67 = call noundef nonnull align 4 dereferenceable(28) ptr @_ZN6icu_779ScriptSet3setE11UScriptCodeR10UErrorCode(ptr noundef nonnull align 4 dereferenceable(28) %65, i32 noundef 172, ptr noundef nonnull align 4 dereferenceable(4) %66)
  br label %68

68:                                               ; preds = %64, %59
  %69 = load ptr, ptr %5, align 8, !tbaa !56
  %70 = load ptr, ptr %6, align 8, !tbaa !10
  %71 = call noundef signext i8 @_ZNK6icu_779ScriptSet4testE11UScriptCodeR10UErrorCode(ptr noundef nonnull align 4 dereferenceable(28) %69, i32 noundef 0, ptr noundef nonnull align 4 dereferenceable(4) %70)
  %72 = icmp ne i8 %71, 0
  br i1 %72, label %78, label %73

73:                                               ; preds = %68
  %74 = load ptr, ptr %5, align 8, !tbaa !56
  %75 = load ptr, ptr %6, align 8, !tbaa !10
  %76 = call noundef signext i8 @_ZNK6icu_779ScriptSet4testE11UScriptCodeR10UErrorCode(ptr noundef nonnull align 4 dereferenceable(28) %74, i32 noundef 1, ptr noundef nonnull align 4 dereferenceable(4) %75)
  %77 = icmp ne i8 %76, 0
  br i1 %77, label %78, label %81

78:                                               ; preds = %73, %68
  %79 = load ptr, ptr %5, align 8, !tbaa !56
  %80 = call noundef nonnull align 4 dereferenceable(28) ptr @_ZN6icu_779ScriptSet6setAllEv(ptr noundef nonnull align 4 dereferenceable(28) %79)
  br label %81

81:                                               ; preds = %16, %78, %73
  ret void
}