; Function Attrs: mustprogress uwtable
define void @_ZN6icu_779SpoofImpl21getAugmentedScriptSetEiRNS_9ScriptSetER10UErrorCode(i32 noundef %0, ptr noundef nonnull align 4 dereferenceable(28) %1, ptr noundef nonnull align 4 dereferenceable(4) %2) local_unnamed_addr #1 align 2 {
  %4 = tail call noundef nonnull align 4 dereferenceable(28) ptr @_ZN6icu_779ScriptSet8resetAllEv(ptr noundef nonnull align 4 dereferenceable(28) %1)
  tail call void @_ZN6icu_779ScriptSet19setScriptExtensionsEiR10UErrorCode(ptr noundef nonnull align 4 dereferenceable(28) %1, i32 noundef %0, ptr noundef nonnull align 4 dereferenceable(4) %2)
  %5 = load i32, ptr %2, align 4, !tbaa !19
  %6 = icmp slt i32 %5, 1
  br i1 %6, label %7, label %35

7:                                                ; preds = %3
  %8 = tail call noundef signext i8 @_ZNK6icu_779ScriptSet4testE11UScriptCodeR10UErrorCode(ptr noundef nonnull align 4 dereferenceable(28) %1, i32 noundef 17, ptr noundef nonnull align 4 dereferenceable(4) %2)
  %.not33 = icmp eq i8 %8, 0
  br i1 %.not33, label %13, label %9

9:                                                ; preds = %7
  %10 = tail call noundef nonnull align 4 dereferenceable(28) ptr @_ZN6icu_779ScriptSet3setE11UScriptCodeR10UErrorCode(ptr noundef nonnull align 4 dereferenceable(28) %1, i32 noundef 172, ptr noundef nonnull align 4 dereferenceable(4) %2)
  %11 = tail call noundef nonnull align 4 dereferenceable(28) ptr @_ZN6icu_779ScriptSet3setE11UScriptCodeR10UErrorCode(ptr noundef nonnull align 4 dereferenceable(28) %1, i32 noundef 105, ptr noundef nonnull align 4 dereferenceable(4) %2)
  %12 = tail call noundef nonnull align 4 dereferenceable(28) ptr @_ZN6icu_779ScriptSet3setE11UScriptCodeR10UErrorCode(ptr noundef nonnull align 4 dereferenceable(28) %1, i32 noundef 119, ptr noundef nonnull align 4 dereferenceable(4) %2)
  br label %13

13:                                               ; preds = %9, %7
  %14 = tail call noundef signext i8 @_ZNK6icu_779ScriptSet4testE11UScriptCodeR10UErrorCode(ptr noundef nonnull align 4 dereferenceable(28) %1, i32 noundef 20, ptr noundef nonnull align 4 dereferenceable(4) %2)
  %.not34 = icmp eq i8 %14, 0
  br i1 %.not34, label %17, label %15

15:                                               ; preds = %13
  %16 = tail call noundef nonnull align 4 dereferenceable(28) ptr @_ZN6icu_779ScriptSet3setE11UScriptCodeR10UErrorCode(ptr noundef nonnull align 4 dereferenceable(28) %1, i32 noundef 105, ptr noundef nonnull align 4 dereferenceable(4) %2)
  br label %17

17:                                               ; preds = %15, %13
  %18 = tail call noundef signext i8 @_ZNK6icu_779ScriptSet4testE11UScriptCodeR10UErrorCode(ptr noundef nonnull align 4 dereferenceable(28) %1, i32 noundef 22, ptr noundef nonnull align 4 dereferenceable(4) %2)
  %.not35 = icmp eq i8 %18, 0
  br i1 %.not35, label %21, label %19

19:                                               ; preds = %17
  %20 = tail call noundef nonnull align 4 dereferenceable(28) ptr @_ZN6icu_779ScriptSet3setE11UScriptCodeR10UErrorCode(ptr noundef nonnull align 4 dereferenceable(28) %1, i32 noundef 105, ptr noundef nonnull align 4 dereferenceable(4) %2)
  br label %21

21:                                               ; preds = %19, %17
  %22 = tail call noundef signext i8 @_ZNK6icu_779ScriptSet4testE11UScriptCodeR10UErrorCode(ptr noundef nonnull align 4 dereferenceable(28) %1, i32 noundef 18, ptr noundef nonnull align 4 dereferenceable(4) %2)
  %.not36 = icmp eq i8 %22, 0
  br i1 %.not36, label %25, label %23

23:                                               ; preds = %21
  %24 = tail call noundef nonnull align 4 dereferenceable(28) ptr @_ZN6icu_779ScriptSet3setE11UScriptCodeR10UErrorCode(ptr noundef nonnull align 4 dereferenceable(28) %1, i32 noundef 119, ptr noundef nonnull align 4 dereferenceable(4) %2)
  br label %25

25:                                               ; preds = %23, %21
  %26 = tail call noundef signext i8 @_ZNK6icu_779ScriptSet4testE11UScriptCodeR10UErrorCode(ptr noundef nonnull align 4 dereferenceable(28) %1, i32 noundef 5, ptr noundef nonnull align 4 dereferenceable(4) %2)
  %.not37 = icmp eq i8 %26, 0
  br i1 %.not37, label %29, label %27

27:                                               ; preds = %25
  %28 = tail call noundef nonnull align 4 dereferenceable(28) ptr @_ZN6icu_779ScriptSet3setE11UScriptCodeR10UErrorCode(ptr noundef nonnull align 4 dereferenceable(28) %1, i32 noundef 172, ptr noundef nonnull align 4 dereferenceable(4) %2)
  br label %29

29:                                               ; preds = %27, %25
  %30 = tail call noundef signext i8 @_ZNK6icu_779ScriptSet4testE11UScriptCodeR10UErrorCode(ptr noundef nonnull align 4 dereferenceable(28) %1, i32 noundef 0, ptr noundef nonnull align 4 dereferenceable(4) %2)
  %.not38 = icmp eq i8 %30, 0
  br i1 %.not38, label %31, label %33

31:                                               ; preds = %29
  %32 = tail call noundef signext i8 @_ZNK6icu_779ScriptSet4testE11UScriptCodeR10UErrorCode(ptr noundef nonnull align 4 dereferenceable(28) %1, i32 noundef 1, ptr noundef nonnull align 4 dereferenceable(4) %2)
  %.not39 = icmp eq i8 %32, 0
  br i1 %.not39, label %35, label %33

33:                                               ; preds = %31, %29
  %34 = tail call noundef nonnull align 4 dereferenceable(28) ptr @_ZN6icu_779ScriptSet6setAllEv(ptr noundef nonnull align 4 dereferenceable(28) %1)
  br label %35

35:                                               ; preds = %3, %33, %31
  ret void
}